; Function Attrs: mustprogress nounwind uwtable
define dso_local void @_ZN3net22QuicCryptoServerConfig21SetEphemeralKeySourceEPNS_18EphemeralKeySourceE(ptr nocapture noundef nonnull align 8 dereferenceable(405) %this, ptr noundef %ephemeral_key_source) local_unnamed_addr #4 align 2 {
entry:
  %ephemeral_key_source_ = getelementptr inbounds i8, ptr %this, i64 368
  %0 = load ptr, ptr %ephemeral_key_source_, align 8
  store ptr %ephemeral_key_source, ptr %ephemeral_key_source_, align 8
  %tobool.not.i.i = icmp eq ptr %0, null
  br i1 %tobool.not.i.i, label %_ZNSt10unique_ptrIN3net18EphemeralKeySourceESt14default_deleteIS1_EE5resetEPS1_.exit, label %_ZNKSt14default_deleteIN3net18EphemeralKeySourceEEclEPS1_.exit.i.i

_ZNKSt14default_deleteIN3net18EphemeralKeySourceEEclEPS1_.exit.i.i: ; preds = %entry
  %vtable.i.i.i = load ptr, ptr %0, align 8
  %vfn.i.i.i = getelementptr inbounds i8, ptr %vtable.i.i.i, i64 8
  %1 = load ptr, ptr %vfn.i.i.i, align 8
  tail call void %1(ptr noundef nonnull align 8 dereferenceable(8) %0) #20
  br label %_ZNSt10unique_ptrIN3net18EphemeralKeySourceESt14default_deleteIS1_EE5resetEPS1_.exit

_ZNSt10unique_ptrIN3net18EphemeralKeySourceESt14default_deleteIS1_EE5resetEPS1_.exit: ; preds = %entry, %_ZNKSt14default_deleteIN3net18EphemeralKeySourceEEclEPS1_.exit.i.i
  ret void
}